; Function Attrs: nounwind uwtable
define ptr @l_Array_foldlMUnsafe_fold___at___private_Lean_Meta_LazyDiscrTree_0__Lean_Meta_LazyDiscrTree_combineGet___spec__1___rarg(ptr noundef %0, ptr noundef readonly captures(none) %1, i64 noundef %2, i64 noundef %3, ptr noundef %4) local_unnamed_addr #1 {
  %.not36 = icmp eq i64 %2, %3
  br i1 %.not36, label %.._crit_edge_crit_edge, label %.lr.ph

.._crit_edge_crit_edge:                           ; preds = %5
  %.pre = ptrtoint ptr %0 to i64
  %.pre39 = and i64 %.pre, 1
  br label %._crit_edge

.lr.ph:                                           ; preds = %5
  %6 = getelementptr inbounds nuw i8, ptr %1, i64 24
  %7 = ptrtoint ptr %0 to i64
  %8 = and i64 %7, 1
  %.not35 = icmp eq i64 %8, 0
  br label %9

9:                                                ; preds = %.lr.ph, %lean_dec.exit
  %.01838 = phi i64 [ %2, %.lr.ph ], [ %50, %lean_dec.exit ]
  %.02037 = phi ptr [ %4, %.lr.ph ], [ %49, %lean_dec.exit ]
  %10 = getelementptr inbounds nuw [0 x ptr], ptr %6, i64 0, i64 %.01838
  %11 = load ptr, ptr %10, align 8, !tbaa !4
  %12 = ptrtoint ptr %11 to i64
  %13 = and i64 %12, 1
  %.not.i22 = icmp eq i64 %13, 0
  br i1 %.not.i22, label %14, label %lean_array_uget.exit

14:                                               ; preds = %9
  %.val.i.i = load i32, ptr %11, align 4, !tbaa !8
  %15 = icmp sgt i32 %.val.i.i, 0
  br i1 %15, label %16, label %18, !prof !11

16:                                               ; preds = %14
  %17 = add nuw i32 %.val.i.i, 1
  store i32 %17, ptr %11, align 4, !tbaa !8
  br label %lean_array_uget.exit

18:                                               ; preds = %14
  %.not.i.i = icmp eq i32 %.val.i.i, 0
  br i1 %.not.i.i, label %lean_array_uget.exit, label %19

19:                                               ; preds = %18
  tail call void @lean_inc_ref_cold(ptr noundef nonnull %11) #6
  br label %lean_array_uget.exit

lean_array_uget.exit:                             ; preds = %9, %16, %18, %19
  %20 = tail call ptr @lean_task_get(ptr noundef %11) #6
  %21 = ptrtoint ptr %20 to i64
  %22 = and i64 %21, 1
  %.not.i23 = icmp eq i64 %22, 0
  br i1 %.not.i23, label %23, label %lean_inc.exit.i

23:                                               ; preds = %lean_array_uget.exit
  %.val.i.i25 = load i32, ptr %20, align 4, !tbaa !8
  %24 = icmp sgt i32 %.val.i.i25, 0
  br i1 %24, label %25, label %27, !prof !11

25:                                               ; preds = %23
  %26 = add nuw i32 %.val.i.i25, 1
  store i32 %26, ptr %20, align 4, !tbaa !8
  br label %lean_inc.exit.i

27:                                               ; preds = %23
  %.not.i4.i = icmp eq i32 %.val.i.i25, 0
  br i1 %.not.i4.i, label %lean_inc.exit.i, label %28

28:                                               ; preds = %27
  tail call void @lean_inc_ref_cold(ptr noundef nonnull %20) #6
  br label %lean_inc.exit.i

lean_inc.exit.i:                                  ; preds = %28, %27, %25, %lean_array_uget.exit
  br i1 %.not.i22, label %29, label %lean_task_get_own.exit

29:                                               ; preds = %lean_inc.exit.i
  %30 = load i32, ptr %11, align 4, !tbaa !8
  %31 = icmp sgt i32 %30, 1
  br i1 %31, label %32, label %34, !prof !11

32:                                               ; preds = %29
  %33 = add nsw i32 %30, -1
  store i32 %33, ptr %11, align 4, !tbaa !8
  br label %lean_task_get_own.exit

34:                                               ; preds = %29
  %.not.i.i24 = icmp eq i32 %30, 0
  br i1 %.not.i.i24, label %lean_task_get_own.exit, label %35

35:                                               ; preds = %34
  tail call void @lean_dec_ref_cold(ptr noundef nonnull %11) #6
  br label %lean_task_get_own.exit

lean_task_get_own.exit:                           ; preds = %lean_inc.exit.i, %32, %34, %35
  br i1 %.not35, label %36, label %lean_dec.exit

36:                                               ; preds = %lean_task_get_own.exit
  %.val.i = load i32, ptr %0, align 4, !tbaa !8
  %37 = icmp sgt i32 %.val.i, 0
  br i1 %37, label %38, label %40, !prof !11

38:                                               ; preds = %36
  %39 = add nuw i32 %.val.i, 1
  store i32 %39, ptr %0, align 4, !tbaa !8
  br label %lean_dec.exit

40:                                               ; preds = %36
  %.not.i26 = icmp eq i32 %.val.i, 0
  br i1 %.not.i26, label %lean_dec.exit, label %41

41:                                               ; preds = %40
  tail call void @lean_inc_ref_cold(ptr noundef nonnull %0) #6
  br label %lean_dec.exit

._crit_edge:                                      ; preds = %lean_dec.exit, %.._crit_edge_crit_edge
  %.pre-phi40 = phi i64 [ %.pre39, %.._crit_edge_crit_edge ], [ %8, %lean_dec.exit ]
  %.020.lcssa = phi ptr [ %4, %.._crit_edge_crit_edge ], [ %49, %lean_dec.exit ]
  %.not34 = icmp eq i64 %.pre-phi40, 0
  br i1 %.not34, label %42, label %51

42:                                               ; preds = %._crit_edge
  %43 = load i32, ptr %0, align 4, !tbaa !8
  %44 = icmp sgt i32 %43, 1
  br i1 %44, label %45, label %47, !prof !11

45:                                               ; preds = %42
  %46 = add nsw i32 %43, -1
  store i32 %46, ptr %0, align 4, !tbaa !8
  br label %51

47:                                               ; preds = %42
  %.not.i = icmp eq i32 %43, 0
  br i1 %.not.i, label %51, label %48

48:                                               ; preds = %47
  tail call void @lean_dec_ref_cold(ptr noundef nonnull %0) #6
  br label %51

lean_dec.exit:                                    ; preds = %lean_task_get_own.exit, %38, %40, %41
  %49 = tail call ptr @lean_apply_2(ptr noundef %0, ptr noundef %.02037, ptr noundef %20) #6
  %50 = add i64 %.01838, 1
  %.not = icmp eq i64 %50, %3
  br i1 %.not, label %._crit_edge, label %9

51:                                               ; preds = %48, %47, %45, %._crit_edge
  ret ptr %.020.lcssa
}